; Function Attrs: mustprogress nounwind uwtable
define internal void @_ZN12_GLOBAL__N_116VarArgHelperBase15visitVACopyInstERN4llvm10VACopyInstE(ptr nocapture noundef nonnull readonly align 8 dereferenceable(180) %0, ptr noundef nonnull align 8 dereferenceable(88) %1) unnamed_addr #0 align 2 {
  %3 = getelementptr inbounds nuw i8, ptr %0, i64 8
  %4 = load ptr, ptr %3, align 8
  %5 = getelementptr inbounds nuw i8, ptr %4, i64 2
  %6 = load i16, ptr %5, align 2
  %7 = and i16 %6, 16368
  %8 = icmp eq i16 %7, 1264
  br i1 %8, label %10, label %9

9:                                                ; preds = %2
  tail call fastcc void @_ZN12_GLOBAL__N_116VarArgHelperBase24unpoisonVAListTagForInstERN4llvm13IntrinsicInstE(ptr noundef nonnull align 8 dereferenceable(180) %0, ptr noundef nonnull align 8 dereferenceable(88) %1)
  br label %10

10:                                               ; preds = %2, %9
  ret void
}